; Function Attrs: mustprogress uwtable
define dso_local void @_ZN4base21HistogramTypeToStringB5cxx11ENS_13HistogramTypeE(ptr noalias sret(%"class.std::__cxx11::basic_string") align 8 %agg.result, i32 noundef %type) local_unnamed_addr #0 personality ptr @__gxx_personality_v0 {
entry:
  %ref.tmp = alloca %"class.std::allocator", align 1
  %ref.tmp2 = alloca %"class.std::allocator", align 1
  %ref.tmp6 = alloca %"class.std::allocator", align 1
  %ref.tmp10 = alloca %"class.std::allocator", align 1
  %ref.tmp14 = alloca %"class.std::allocator", align 1
  %ref.tmp17 = alloca %"class.std::allocator", align 1
  switch i32 %type, label %sw.epilog [
    i32 0, label %sw.bb
    i32 1, label %sw.bb1
    i32 2, label %sw.bb5
    i32 3, label %sw.bb9
    i32 4, label %sw.bb13
  ]

sw.bb:                                            ; preds = %entry
  call void @_ZNSaIcEC1Ev(ptr noundef nonnull align 1 dereferenceable(1) %ref.tmp) #14
  %call.i2 = invoke noundef ptr @_ZNSt7__cxx1112basic_stringIcSt11char_traitsIcESaIcEE13_M_local_dataEv(ptr noundef nonnull align 8 dereferenceable(32) %agg.result)
          to label %call.i.noexc unwind label %lpad

call.i.noexc:                                     ; preds = %sw.bb
  invoke void @_ZNSt7__cxx1112basic_stringIcSt11char_traitsIcESaIcEE12_Alloc_hiderC1EPcRKS3_(ptr noundef nonnull align 8 dereferenceable(8) %agg.result, ptr noundef %call.i2, ptr noundef nonnull align 1 dereferenceable(1) %ref.tmp)
          to label %.noexc unwind label %lpad

.noexc:                                           ; preds = %call.i.noexc
  invoke void @_ZNSt7__cxx1112basic_stringIcSt11char_traitsIcESaIcEE12_M_constructIPKcEEvT_S8_St20forward_iterator_tag(ptr noundef nonnull align 8 dereferenceable(32) %agg.result, ptr noundef nonnull @.str, ptr noundef nonnull getelementptr inbounds ([10 x i8], ptr @.str, i64 0, i64 9))
          to label %return unwind label %lpad.i

lpad.i:                                           ; preds = %.noexc
  %0 = landingpad { ptr, i32 }
          cleanup
  call void @_ZNSaIcED2Ev(ptr noundef nonnull align 1 dereferenceable(1) %agg.result) #14
  br label %eh.resume

lpad:                                             ; preds = %call.i.noexc, %sw.bb
  %1 = landingpad { ptr, i32 }
          cleanup
  br label %eh.resume

sw.bb1:                                           ; preds = %entry
  call void @_ZNSaIcEC1Ev(ptr noundef nonnull align 1 dereferenceable(1) %ref.tmp2) #14
  %call.i7 = invoke noundef ptr @_ZNSt7__cxx1112basic_stringIcSt11char_traitsIcESaIcEE13_M_local_dataEv(ptr noundef nonnull align 8 dereferenceable(32) %agg.result)
          to label %call.i.noexc6 unwind label %lpad3

call.i.noexc6:                                    ; preds = %sw.bb1
  invoke void @_ZNSt7__cxx1112basic_stringIcSt11char_traitsIcESaIcEE12_Alloc_hiderC1EPcRKS3_(ptr noundef nonnull align 8 dereferenceable(8) %agg.result, ptr noundef %call.i7, ptr noundef nonnull align 1 dereferenceable(1) %ref.tmp2)
          to label %.noexc8 unwind label %lpad3

.noexc8:                                          ; preds = %call.i.noexc6
  invoke void @_ZNSt7__cxx1112basic_stringIcSt11char_traitsIcESaIcEE12_M_constructIPKcEEvT_S8_St20forward_iterator_tag(ptr noundef nonnull align 8 dereferenceable(32) %agg.result, ptr noundef nonnull @.str.1, ptr noundef nonnull getelementptr inbounds ([17 x i8], ptr @.str.1, i64 0, i64 16))
          to label %return unwind label %lpad.i5

lpad.i5:                                          ; preds = %.noexc8
  %2 = landingpad { ptr, i32 }
          cleanup
  call void @_ZNSaIcED2Ev(ptr noundef nonnull align 1 dereferenceable(1) %agg.result) #14
  br label %eh.resume

lpad3:                                            ; preds = %call.i.noexc6, %sw.bb1
  %3 = landingpad { ptr, i32 }
          cleanup
  br label %eh.resume

sw.bb5:                                           ; preds = %entry
  call void @_ZNSaIcEC1Ev(ptr noundef nonnull align 1 dereferenceable(1) %ref.tmp6) #14
  %call.i15 = invoke noundef ptr @_ZNSt7__cxx1112basic_stringIcSt11char_traitsIcESaIcEE13_M_local_dataEv(ptr noundef nonnull align 8 dereferenceable(32) %agg.result)
          to label %call.i.noexc14 unwind label %lpad7

call.i.noexc14:                                   ; preds = %sw.bb5
  invoke void @_ZNSt7__cxx1112basic_stringIcSt11char_traitsIcESaIcEE12_Alloc_hiderC1EPcRKS3_(ptr noundef nonnull align 8 dereferenceable(8) %agg.result, ptr noundef %call.i15, ptr noundef nonnull align 1 dereferenceable(1) %ref.tmp6)
          to label %.noexc16 unwind label %lpad7

.noexc16:                                         ; preds = %call.i.noexc14
  invoke void @_ZNSt7__cxx1112basic_stringIcSt11char_traitsIcESaIcEE12_M_constructIPKcEEvT_S8_St20forward_iterator_tag(ptr noundef nonnull align 8 dereferenceable(32) %agg.result, ptr noundef nonnull @.str.2, ptr noundef nonnull getelementptr inbounds ([18 x i8], ptr @.str.2, i64 0, i64 17))
          to label %return unwind label %lpad.i13

lpad.i13:                                         ; preds = %.noexc16
  %4 = landingpad { ptr, i32 }
          cleanup
  call void @_ZNSaIcED2Ev(ptr noundef nonnull align 1 dereferenceable(1) %agg.result) #14
  br label %eh.resume

lpad7:                                            ; preds = %call.i.noexc14, %sw.bb5
  %5 = landingpad { ptr, i32 }
          cleanup
  br label %eh.resume

sw.bb9:                                           ; preds = %entry
  call void @_ZNSaIcEC1Ev(ptr noundef nonnull align 1 dereferenceable(1) %ref.tmp10) #14
  %call.i23 = invoke noundef ptr @_ZNSt7__cxx1112basic_stringIcSt11char_traitsIcESaIcEE13_M_local_dataEv(ptr noundef nonnull align 8 dereferenceable(32) %agg.result)
          to label %call.i.noexc22 unwind label %lpad11

call.i.noexc22:                                   ; preds = %sw.bb9
  invoke void @_ZNSt7__cxx1112basic_stringIcSt11char_traitsIcESaIcEE12_Alloc_hiderC1EPcRKS3_(ptr noundef nonnull align 8 dereferenceable(8) %agg.result, ptr noundef %call.i23, ptr noundef nonnull align 1 dereferenceable(1) %ref.tmp10)
          to label %.noexc24 unwind label %lpad11

.noexc24:                                         ; preds = %call.i.noexc22
  invoke void @_ZNSt7__cxx1112basic_stringIcSt11char_traitsIcESaIcEE12_M_constructIPKcEEvT_S8_St20forward_iterator_tag(ptr noundef nonnull align 8 dereferenceable(32) %agg.result, ptr noundef nonnull @.str.3, ptr noundef nonnull getelementptr inbounds ([17 x i8], ptr @.str.3, i64 0, i64 16))
          to label %return unwind label %lpad.i21

lpad.i21:                                         ; preds = %.noexc24
  %6 = landingpad { ptr, i32 }
          cleanup
  call void @_ZNSaIcED2Ev(ptr noundef nonnull align 1 dereferenceable(1) %agg.result) #14
  br label %eh.resume

lpad11:                                           ; preds = %call.i.noexc22, %sw.bb9
  %7 = landingpad { ptr, i32 }
          cleanup
  br label %eh.resume

sw.bb13:                                          ; preds = %entry
  call void @_ZNSaIcEC1Ev(ptr noundef nonnull align 1 dereferenceable(1) %ref.tmp14) #14
  %call.i31 = invoke noundef ptr @_ZNSt7__cxx1112basic_stringIcSt11char_traitsIcESaIcEE13_M_local_dataEv(ptr noundef nonnull align 8 dereferenceable(32) %agg.result)
          to label %call.i.noexc30 unwind label %lpad15

call.i.noexc30:                                   ; preds = %sw.bb13
  invoke void @_ZNSt7__cxx1112basic_stringIcSt11char_traitsIcESaIcEE12_Alloc_hiderC1EPcRKS3_(ptr noundef nonnull align 8 dereferenceable(8) %agg.result, ptr noundef %call.i31, ptr noundef nonnull align 1 dereferenceable(1) %ref.tmp14)
          to label %.noexc32 unwind label %lpad15

.noexc32:                                         ; preds = %call.i.noexc30
  invoke void @_ZNSt7__cxx1112basic_stringIcSt11char_traitsIcESaIcEE12_M_constructIPKcEEvT_S8_St20forward_iterator_tag(ptr noundef nonnull align 8 dereferenceable(32) %agg.result, ptr noundef nonnull @.str.4, ptr noundef nonnull getelementptr inbounds ([17 x i8], ptr @.str.4, i64 0, i64 16))
          to label %return unwind label %lpad.i29

lpad.i29:                                         ; preds = %.noexc32
  %8 = landingpad { ptr, i32 }
          cleanup
  call void @_ZNSaIcED2Ev(ptr noundef nonnull align 1 dereferenceable(1) %agg.result) #14
  br label %eh.resume

lpad15:                                           ; preds = %call.i.noexc30, %sw.bb13
  %9 = landingpad { ptr, i32 }
          cleanup
  br label %eh.resume

sw.epilog:                                        ; preds = %entry
  call void @_ZNSaIcEC1Ev(ptr noundef nonnull align 1 dereferenceable(1) %ref.tmp17) #14
  %call.i39 = invoke noundef ptr @_ZNSt7__cxx1112basic_stringIcSt11char_traitsIcESaIcEE13_M_local_dataEv(ptr noundef nonnull align 8 dereferenceable(32) %agg.result)
          to label %call.i.noexc38 unwind label %lpad18

call.i.noexc38:                                   ; preds = %sw.epilog
  invoke void @_ZNSt7__cxx1112basic_stringIcSt11char_traitsIcESaIcEE12_Alloc_hiderC1EPcRKS3_(ptr noundef nonnull align 8 dereferenceable(8) %agg.result, ptr noundef %call.i39, ptr noundef nonnull align 1 dereferenceable(1) %ref.tmp17)
          to label %.noexc40 unwind label %lpad18

.noexc40:                                         ; preds = %call.i.noexc38
  invoke void @_ZNSt7__cxx1112basic_stringIcSt11char_traitsIcESaIcEE12_M_constructIPKcEEvT_S8_St20forward_iterator_tag(ptr noundef nonnull align 8 dereferenceable(32) %agg.result, ptr noundef nonnull @.str.5, ptr noundef nonnull getelementptr inbounds ([8 x i8], ptr @.str.5, i64 0, i64 7))
          to label %return unwind label %lpad.i37

lpad.i37:                                         ; preds = %.noexc40
  %10 = landingpad { ptr, i32 }
          cleanup
  call void @_ZNSaIcED2Ev(ptr noundef nonnull align 1 dereferenceable(1) %agg.result) #14
  br label %eh.resume

lpad18:                                           ; preds = %call.i.noexc38, %sw.epilog
  %11 = landingpad { ptr, i32 }
          cleanup
  br label %eh.resume

return:                                           ; preds = %.noexc40, %.noexc32, %.noexc24, %.noexc16, %.noexc8, %.noexc
  %ref.tmp17.sink = phi ptr [ %ref.tmp, %.noexc ], [ %ref.tmp2, %.noexc8 ], [ %ref.tmp6, %.noexc16 ], [ %ref.tmp10, %.noexc24 ], [ %ref.tmp14, %.noexc32 ], [ %ref.tmp17, %.noexc40 ]
  call void @_ZNSaIcED1Ev(ptr noundef nonnull align 1 dereferenceable(1) %ref.tmp17.sink) #14
  ret void

eh.resume:                                        ; preds = %lpad18, %lpad.i37, %lpad15, %lpad.i29, %lpad11, %lpad.i21, %lpad7, %lpad.i13, %lpad3, %lpad.i5, %lpad, %lpad.i
  %ref.tmp17.sink43 = phi ptr [ %ref.tmp, %lpad.i ], [ %ref.tmp, %lpad ], [ %ref.tmp2, %lpad.i5 ], [ %ref.tmp2, %lpad3 ], [ %ref.tmp6, %lpad.i13 ], [ %ref.tmp6, %lpad7 ], [ %ref.tmp10, %lpad.i21 ], [ %ref.tmp10, %lpad11 ], [ %ref.tmp14, %lpad.i29 ], [ %ref.tmp14, %lpad15 ], [ %ref.tmp17, %lpad.i37 ], [ %ref.tmp17, %lpad18 ]
  %.pn = phi { ptr, i32 } [ %0, %lpad.i ], [ %1, %lpad ], [ %2, %lpad.i5 ], [ %3, %lpad3 ], [ %4, %lpad.i13 ], [ %5, %lpad7 ], [ %6, %lpad.i21 ], [ %7, %lpad11 ], [ %8, %lpad.i29 ], [ %9, %lpad15 ], [ %10, %lpad.i37 ], [ %11, %lpad18 ]
  call void @_ZNSaIcED1Ev(ptr noundef nonnull align 1 dereferenceable(1) %ref.tmp17.sink43) #14
  resume { ptr, i32 } %.pn
}